target datalayout = "e-m:e-p270:32:32-p271:32:32-p272:64:64-i64:64-i128:128-f80:128-n8:16:32:64-S128"
target triple = "x86_64-pc-linux-gnu"

%struct.EC_PKEY_CTX = type { ptr, ptr, ptr, i8, i8, ptr, ptr, i64, i64 }
%struct.evp_pkey_ctx_st = type { i32, ptr, ptr, ptr, ptr, %union.anon, %struct.anon.4, ptr, ptr, ptr, i32, i32, ptr, ptr, ptr, ptr, ptr, i8, ptr }
%union.anon = type { %struct.anon.0 }
%struct.anon.0 = type { ptr, ptr }
%struct.anon.4 = type { ptr, ptr, i64, i8 }

; Function Attrs: nounwind uwtable
define internal i32 @pkey_ec_verify(ptr noundef %0, ptr noundef %1, i64 noundef %2, ptr noundef %3, i64 noundef %4) #0 {
  %6 = alloca ptr, align 8
  %7 = alloca ptr, align 8
  %8 = alloca i64, align 8
  %9 = alloca ptr, align 8
  %10 = alloca i64, align 8
  %11 = alloca i32, align 4
  %12 = alloca i32, align 4
  %13 = alloca ptr, align 8
  %14 = alloca ptr, align 8
  store ptr %0, ptr %6, align 8, !tbaa !3
  store ptr %1, ptr %7, align 8, !tbaa !39
  store i64 %2, ptr %8, align 8, !tbaa !42
  store ptr %3, ptr %9, align 8, !tbaa !39
  store i64 %4, ptr %10, align 8, !tbaa !42
  call void @llvm.lifetime.start.p0(i64 4, ptr %11) #7
  call void @llvm.lifetime.start.p0(i64 4, ptr %12) #7
  call void @llvm.lifetime.start.p0(i64 8, ptr %13) #7
  %15 = load ptr, ptr %6, align 8, !tbaa !3
  %16 = getelementptr inbounds nuw %struct.evp_pkey_ctx_st, ptr %15, i32 0, i32 16
  %17 = load ptr, ptr %16, align 8, !tbaa !17
  store ptr %17, ptr %13, align 8, !tbaa !8
  call void @llvm.lifetime.start.p0(i64 8, ptr %14) #7
  %18 = load ptr, ptr %6, align 8, !tbaa !3
  %19 = getelementptr inbounds nuw %struct.evp_pkey_ctx_st, ptr %18, i32 0, i32 14
  %20 = load ptr, ptr %19, align 8, !tbaa !38
  %21 = call ptr @EVP_PKEY_get0_EC_KEY(ptr noundef %20)
  store ptr %21, ptr %14, align 8, !tbaa !36
  %22 = load ptr, ptr %13, align 8, !tbaa !8
  %23 = getelementptr inbounds nuw %struct.EC_PKEY_CTX, ptr %22, i32 0, i32 1
  %24 = load ptr, ptr %23, align 8, !tbaa !29
  %25 = icmp ne ptr %24, null
  br i1 %25, label %26, label %31

26:                                               ; preds = %5
  %27 = load ptr, ptr %13, align 8, !tbaa !8
  %28 = getelementptr inbounds nuw %struct.EC_PKEY_CTX, ptr %27, i32 0, i32 1
  %29 = load ptr, ptr %28, align 8, !tbaa !29
  %30 = call i32 @EVP_MD_get_type(ptr noundef %29)
  store i32 %30, ptr %12, align 4, !tbaa !37
  br label %32

31:                                               ; preds = %5
  store i32 64, ptr %12, align 4, !tbaa !37
  br label %32

32:                                               ; preds = %31, %26
  %33 = load i32, ptr %12, align 4, !tbaa !37
  %34 = load ptr, ptr %9, align 8, !tbaa !39
  %35 = load i64, ptr %10, align 8, !tbaa !42
  %36 = trunc i64 %35 to i32
  %37 = load ptr, ptr %7, align 8, !tbaa !39
  %38 = load i64, ptr %8, align 8, !tbaa !42
  %39 = trunc i64 %38 to i32
  %40 = load ptr, ptr %14, align 8, !tbaa !36
  %41 = call i32 @ECDSA_verify(i32 noundef %33, ptr noundef %34, i32 noundef %36, ptr noundef %37, i32 noundef %39, ptr noundef %40)
  store i32 %41, ptr %11, align 4, !tbaa !37
  %42 = load i32, ptr %11, align 4, !tbaa !37
  call void @llvm.lifetime.end.p0(i64 8, ptr %14) #7
  call void @llvm.lifetime.end.p0(i64 8, ptr %13) #7
  call void @llvm.lifetime.end.p0(i64 4, ptr %12) #7
  call void @llvm.lifetime.end.p0(i64 4, ptr %11) #7
  ret i32 %42
}