; Function Attrs: nounwind uwtable
define internal i32 @pkey_ec_verify(ptr noundef readonly captures(none) %0, ptr noundef %1, i64 noundef %2, ptr noundef %3, i64 noundef %4) #1 {
  %6 = getelementptr inbounds nuw i8, ptr %0, i64 152
  %7 = load ptr, ptr %6, align 8, !tbaa !14
  %8 = getelementptr inbounds nuw i8, ptr %0, i64 136
  %9 = load ptr, ptr %8, align 8, !tbaa !33
  %10 = tail call ptr @EVP_PKEY_get0_EC_KEY(ptr noundef %9) #6
  %11 = getelementptr inbounds nuw i8, ptr %7, i64 8
  %12 = load ptr, ptr %11, align 8, !tbaa !26
  %.not = icmp eq ptr %12, null
  br i1 %.not, label %15, label %13

13:                                               ; preds = %5
  %14 = tail call i32 @EVP_MD_get_type(ptr noundef nonnull %12) #6
  br label %15

15:                                               ; preds = %5, %13
  %.0 = phi i32 [ %14, %13 ], [ 64, %5 ]
  %16 = trunc i64 %4 to i32
  %17 = trunc i64 %2 to i32
  %18 = tail call i32 @ECDSA_verify(i32 noundef %.0, ptr noundef %3, i32 noundef %16, ptr noundef %1, i32 noundef %17, ptr noundef %10) #6
  ret i32 %18
}